target datalayout = "e-m:e-p270:32:32-p271:32:32-p272:64:64-i64:64-i128:128-f80:128-n8:16:32:64-S128"
target triple = "x86_64-pc-linux-gnu"

%struct.test_fixture = type { ptr, i32, ptr, ptr }

@.str = private unnamed_addr constant [22 x i8] c"test_cmp_asn1_get_int\00", align 1
@.str.3 = private unnamed_addr constant [31 x i8] c"../openssl/test/cmp_asn_test.c\00", align 1
@.str.4 = private unnamed_addr constant [43 x i8] c"fixture = OPENSSL_zalloc(sizeof(*fixture))\00", align 1
@.str.5 = private unnamed_addr constant [12 x i8] c"asn1integer\00", align 1
@.str.6 = private unnamed_addr constant [40 x i8] c"ASN1_INTEGER_set(asn1integer, good_int)\00", align 1
@.str.7 = private unnamed_addr constant [9 x i8] c"good_int\00", align 1
@.str.8 = private unnamed_addr constant [35 x i8] c"ossl_cmp_asn1_get_int(asn1integer)\00", align 1
@.str.9 = private unnamed_addr constant [49 x i8] c"ASN1_INTEGER_set_int64(asn1integer, max_int + 1)\00", align 1
@.str.10 = private unnamed_addr constant [3 x i8] c"-2\00", align 1

; Function Attrs: nounwind uwtable
define internal void @tear_down(ptr noundef %0) #0 {
  %2 = alloca ptr, align 8
  store ptr %0, ptr %2, align 8, !tbaa !4
  %3 = load ptr, ptr %2, align 8, !tbaa !4
  %4 = getelementptr inbounds nuw %struct.test_fixture, ptr %3, i32 0, i32 2
  %5 = load ptr, ptr %4, align 8, !tbaa !16
  call void @ASN1_OCTET_STRING_free(ptr noundef %5)
  %6 = load ptr, ptr %2, align 8, !tbaa !4
  %7 = getelementptr inbounds nuw %struct.test_fixture, ptr %6, i32 0, i32 3
  %8 = load ptr, ptr %7, align 8, !tbaa !15
  %9 = load ptr, ptr %2, align 8, !tbaa !4
  %10 = getelementptr inbounds nuw %struct.test_fixture, ptr %9, i32 0, i32 2
  %11 = load ptr, ptr %10, align 8, !tbaa !16
  %12 = icmp ne ptr %8, %11
  br i1 %12, label %13, label %17

13:                                               ; preds = %1
  %14 = load ptr, ptr %2, align 8, !tbaa !4
  %15 = getelementptr inbounds nuw %struct.test_fixture, ptr %14, i32 0, i32 3
  %16 = load ptr, ptr %15, align 8, !tbaa !15
  call void @ASN1_OCTET_STRING_free(ptr noundef %16)
  br label %17

17:                                               ; preds = %13, %1
  %18 = load ptr, ptr %2, align 8, !tbaa !4
  call void @CRYPTO_free(ptr noundef %18, ptr noundef @.str.3, i32 noundef 40)
  ret void
}

; Function Attrs: nounwind uwtable
define internal i32 @execute_cmp_asn1_get_int_test(ptr noundef %0) #0 {
  %2 = alloca i32, align 4
  %3 = alloca ptr, align 8
  %4 = alloca i32, align 4
  %5 = alloca ptr, align 8
  %6 = alloca i32, align 4
  %7 = alloca i64, align 8
  %8 = alloca i32, align 4
  store ptr %0, ptr %3, align 8, !tbaa !4
  call void @llvm.lifetime.start.p0(i64 4, ptr %4) #3
  store i32 0, ptr %4, align 4, !tbaa !9
  call void @llvm.lifetime.start.p0(i64 8, ptr %5) #3
  %9 = call ptr @ASN1_INTEGER_new()
  store ptr %9, ptr %5, align 8, !tbaa !19
  call void @llvm.lifetime.start.p0(i64 4, ptr %6) #3
  store i32 77, ptr %6, align 4, !tbaa !9
  call void @llvm.lifetime.start.p0(i64 8, ptr %7) #3
  store i64 2147483647, ptr %7, align 8, !tbaa !20
  %10 = load ptr, ptr %5, align 8, !tbaa !19
  %11 = call i32 @test_ptr(ptr noundef @.str.3, i32 noundef 50, ptr noundef @.str.5, ptr noundef %10)
  %12 = icmp ne i32 %11, 0
  br i1 %12, label %15, label %13

13:                                               ; preds = %1
  %14 = load i32, ptr %4, align 4, !tbaa !9
  store i32 %14, ptr %2, align 4
  store i32 1, ptr %8, align 4
  br label %46

15:                                               ; preds = %1
  %16 = load ptr, ptr %5, align 8, !tbaa !19
  %17 = call i32 @ASN1_INTEGER_set(ptr noundef %16, i64 noundef 77)
  %18 = icmp ne i32 %17, 0
  %19 = zext i1 %18 to i32
  %20 = call i32 @test_true(ptr noundef @.str.3, i32 noundef 53, ptr noundef @.str.6, i32 noundef %19)
  %21 = icmp ne i32 %20, 0
  br i1 %21, label %24, label %22

22:                                               ; preds = %15
  %23 = load ptr, ptr %5, align 8, !tbaa !19
  call void @ASN1_INTEGER_free(ptr noundef %23)
  store i32 0, ptr %2, align 4
  store i32 1, ptr %8, align 4
  br label %46

24:                                               ; preds = %15
  %25 = load ptr, ptr %5, align 8, !tbaa !19
  %26 = call i32 @ossl_cmp_asn1_get_int(ptr noundef %25)
  %27 = call i32 @test_int_eq(ptr noundef @.str.3, i32 noundef 57, ptr noundef @.str.7, ptr noundef @.str.8, i32 noundef 77, i32 noundef %26)
  store i32 %27, ptr %4, align 4, !tbaa !9
  %28 = load i32, ptr %4, align 4, !tbaa !9
  %29 = icmp eq i32 %28, 0
  br i1 %29, label %30, label %31

30:                                               ; preds = %24
  br label %43

31:                                               ; preds = %24
  store i32 0, ptr %4, align 4, !tbaa !9
  %32 = load ptr, ptr %5, align 8, !tbaa !19
  %33 = call i32 @ASN1_INTEGER_set_int64(ptr noundef %32, i64 noundef 2147483648)
  %34 = icmp ne i32 %33, 0
  %35 = zext i1 %34 to i32
  %36 = call i32 @test_true(ptr noundef @.str.3, i32 noundef 62, ptr noundef @.str.9, i32 noundef %35)
  %37 = icmp ne i32 %36, 0
  br i1 %37, label %39, label %38

38:                                               ; preds = %31
  br label %43

39:                                               ; preds = %31
  %40 = load ptr, ptr %5, align 8, !tbaa !19
  %41 = call i32 @ossl_cmp_asn1_get_int(ptr noundef %40)
  %42 = call i32 @test_int_eq(ptr noundef @.str.3, i32 noundef 64, ptr noundef @.str.10, ptr noundef @.str.8, i32 noundef -2, i32 noundef %41)
  store i32 %42, ptr %4, align 4, !tbaa !9
  br label %43

43:                                               ; preds = %39, %38, %30
  %44 = load ptr, ptr %5, align 8, !tbaa !19
  call void @ASN1_INTEGER_free(ptr noundef %44)
  %45 = load i32, ptr %4, align 4, !tbaa !9
  store i32 %45, ptr %2, align 4
  store i32 1, ptr %8, align 4
  br label %46

46:                                               ; preds = %43, %22, %13
  call void @llvm.lifetime.end.p0(i64 8, ptr %7) #3
  call void @llvm.lifetime.end.p0(i64 4, ptr %6) #3
  call void @llvm.lifetime.end.p0(i64 8, ptr %5) #3
  call void @llvm.lifetime.end.p0(i64 4, ptr %4) #3
  %47 = load i32, ptr %2, align 4
  ret i32 %47
}

; Function Attrs: nounwind uwtable
define internal ptr @set_up(ptr noundef %0) #0 {
  %2 = alloca ptr, align 8
  %3 = alloca ptr, align 8
  %4 = alloca ptr, align 8
  %5 = alloca i32, align 4
  store ptr %0, ptr %3, align 8, !tbaa !17
  call void @llvm.lifetime.start.p0(i64 8, ptr %4) #3
  %6 = call noalias ptr @CRYPTO_zalloc(i64 noundef 32, ptr noundef @.str.3, i32 noundef 28)
  store ptr %6, ptr %4, align 8, !tbaa !4
  %7 = call i32 @test_ptr(ptr noundef @.str.3, i32 noundef 28, ptr noundef @.str.4, ptr noundef %6)
  %8 = icmp ne i32 %7, 0
  br i1 %8, label %10, label %9

9:                                                ; preds = %1
  store ptr null, ptr %2, align 8
  store i32 1, ptr %5, align 4
  br label %15

10:                                               ; preds = %1
  %11 = load ptr, ptr %3, align 8, !tbaa !17
  %12 = load ptr, ptr %4, align 8, !tbaa !4
  %13 = getelementptr inbounds nuw %struct.test_fixture, ptr %12, i32 0, i32 0
  store ptr %11, ptr %13, align 8, !tbaa !18
  %14 = load ptr, ptr %4, align 8, !tbaa !4
  store ptr %14, ptr %2, align 8
  store i32 1, ptr %5, align 4
  br label %15

15:                                               ; preds = %10, %9
  call void @llvm.lifetime.end.p0(i64 8, ptr %4) #3
  %16 = load ptr, ptr %2, align 8
  ret ptr %16
}

; Function Attrs: nounwind uwtable
define internal i32 @test_cmp_asn1_get_int() #0 {
  %1 = alloca i32, align 4
  %2 = alloca ptr, align 8
  %3 = alloca i32, align 4
  %4 = alloca i32, align 4
  call void @llvm.lifetime.start.p0(i64 8, ptr %2) #3
  %5 = call ptr @set_up(ptr noundef @.str)
  store ptr %5, ptr %2, align 8, !tbaa !4
  call void @llvm.lifetime.start.p0(i64 4, ptr %3) #3
  store i32 0, ptr %3, align 4, !tbaa !9
  %6 = load ptr, ptr %2, align 8, !tbaa !4
  %7 = icmp eq ptr %6, null
  br i1 %7, label %8, label %9

8:                                                ; preds = %0
  store i32 0, ptr %1, align 4
  store i32 1, ptr %4, align 4
  br label %20

9:                                                ; preds = %0
  %10 = load ptr, ptr %2, align 8, !tbaa !4
  %11 = getelementptr inbounds nuw %struct.test_fixture, ptr %10, i32 0, i32 1
  store i32 1, ptr %11, align 8, !tbaa !11
  %12 = load ptr, ptr %2, align 8, !tbaa !4
  %13 = icmp ne ptr %12, null
  br i1 %13, label %14, label %18

14:                                               ; preds = %9
  %15 = load ptr, ptr %2, align 8, !tbaa !4
  %16 = call i32 @execute_cmp_asn1_get_int_test(ptr noundef %15)
  store i32 %16, ptr %3, align 4, !tbaa !9
  %17 = load ptr, ptr %2, align 8, !tbaa !4
  call void @tear_down(ptr noundef %17)
  br label %18

18:                                               ; preds = %14, %9
  %19 = load i32, ptr %3, align 4, !tbaa !9
  store i32 %19, ptr %1, align 4
  store i32 1, ptr %4, align 4
  br label %20

20:                                               ; preds = %18, %8
  call void @llvm.lifetime.end.p0(i64 4, ptr %3) #3
  call void @llvm.lifetime.end.p0(i64 8, ptr %2) #3
  %21 = load i32, ptr %1, align 4
  ret i32 %21
}