; Function Attrs: nounwind uwtable
define internal i32 @test_cmp_asn1_get_int() #1 {
  %1 = tail call noalias ptr @CRYPTO_zalloc(i64 noundef 32, ptr noundef nonnull @.str.3, i32 noundef 28) #3
  %2 = tail call i32 @test_ptr(ptr noundef nonnull @.str.3, i32 noundef 28, ptr noundef nonnull @.str.4, ptr noundef %1) #3
  %.not.i = icmp eq i32 %2, 0
  br i1 %.not.i, label %set_up.exit.thread, label %set_up.exit

set_up.exit:                                      ; preds = %0
  store ptr @.str, ptr %1, align 8, !tbaa !4
  %3 = getelementptr inbounds nuw i8, ptr %1, i64 8
  store i32 1, ptr %3, align 8, !tbaa !12
  %4 = tail call ptr @ASN1_INTEGER_new() #3
  %5 = tail call i32 @test_ptr(ptr noundef nonnull @.str.3, i32 noundef 50, ptr noundef nonnull @.str.5, ptr noundef %4) #3
  %.not.i8 = icmp eq i32 %5, 0
  br i1 %.not.i8, label %execute_cmp_asn1_get_int_test.exit, label %6

6:                                                ; preds = %set_up.exit
  %7 = tail call i32 @ASN1_INTEGER_set(ptr noundef %4, i64 noundef 77) #3
  %8 = icmp ne i32 %7, 0
  %9 = zext i1 %8 to i32
  %10 = tail call i32 @test_true(ptr noundef nonnull @.str.3, i32 noundef 53, ptr noundef nonnull @.str.6, i32 noundef %9) #3
  %.not12.i = icmp eq i32 %10, 0
  br i1 %.not12.i, label %.sink.split.i, label %11

11:                                               ; preds = %6
  %12 = tail call i32 @ossl_cmp_asn1_get_int(ptr noundef %4) #3
  %13 = tail call i32 @test_int_eq(ptr noundef nonnull @.str.3, i32 noundef 57, ptr noundef nonnull @.str.7, ptr noundef nonnull @.str.8, i32 noundef 77, i32 noundef %12) #3
  %14 = icmp eq i32 %13, 0
  br i1 %14, label %.sink.split.i, label %15

15:                                               ; preds = %11
  %16 = tail call i32 @ASN1_INTEGER_set_int64(ptr noundef %4, i64 noundef 2147483648) #3
  %17 = icmp ne i32 %16, 0
  %18 = zext i1 %17 to i32
  %19 = tail call i32 @test_true(ptr noundef nonnull @.str.3, i32 noundef 62, ptr noundef nonnull @.str.9, i32 noundef %18) #3
  %.not13.i = icmp eq i32 %19, 0
  br i1 %.not13.i, label %.sink.split.i, label %20

20:                                               ; preds = %15
  %21 = tail call i32 @ossl_cmp_asn1_get_int(ptr noundef %4) #3
  %22 = tail call i32 @test_int_eq(ptr noundef nonnull @.str.3, i32 noundef 64, ptr noundef nonnull @.str.10, ptr noundef nonnull @.str.8, i32 noundef -2, i32 noundef %21) #3
  br label %.sink.split.i

.sink.split.i:                                    ; preds = %20, %15, %11, %6
  %.0.ph.i = phi i32 [ 0, %6 ], [ 0, %11 ], [ %22, %20 ], [ 0, %15 ]
  tail call void @ASN1_INTEGER_free(ptr noundef %4) #3
  br label %execute_cmp_asn1_get_int_test.exit

execute_cmp_asn1_get_int_test.exit:               ; preds = %set_up.exit, %.sink.split.i
  %.0.i9 = phi i32 [ 0, %set_up.exit ], [ %.0.ph.i, %.sink.split.i ]
  %23 = getelementptr inbounds nuw i8, ptr %1, i64 16
  %24 = load ptr, ptr %23, align 8, !tbaa !13
  tail call void @ASN1_OCTET_STRING_free(ptr noundef %24) #3
  %25 = getelementptr inbounds nuw i8, ptr %1, i64 24
  %26 = load ptr, ptr %25, align 8, !tbaa !14
  %27 = load ptr, ptr %23, align 8, !tbaa !13
  %.not.i10 = icmp eq ptr %26, %27
  br i1 %.not.i10, label %tear_down.exit, label %28

28:                                               ; preds = %execute_cmp_asn1_get_int_test.exit
  tail call void @ASN1_OCTET_STRING_free(ptr noundef %26) #3
  br label %tear_down.exit

tear_down.exit:                                   ; preds = %execute_cmp_asn1_get_int_test.exit, %28
  tail call void @CRYPTO_free(ptr noundef nonnull %1, ptr noundef nonnull @.str.3, i32 noundef 40) #3
  br label %set_up.exit.thread

set_up.exit.thread:                               ; preds = %0, %tear_down.exit
  %.06 = phi i32 [ %.0.i9, %tear_down.exit ], [ 0, %0 ]
  ret i32 %.06
}